target datalayout = "e-m:e-p270:32:32-p271:32:32-p272:64:64-i64:64-i128:128-f80:128-n8:16:32:64-S128"
target triple = "x86_64-pc-linux-gnu"

%struct.AVBitStreamFilter = type { ptr, ptr, ptr }

@.str.14 = private unnamed_addr constant [2 x i8] c"\0A\00", align 1
@.str.15 = private unnamed_addr constant [20 x i8] c"Bitstream filters:\0A\00", align 1
@.str.16 = private unnamed_addr constant [4 x i8] c"%s\0A\00", align 1

; Function Attrs: nounwind uwtable
define i32 @show_bsfs(ptr noundef %0, ptr noundef %1, ptr noundef %2) #0 {
  %4 = alloca ptr, align 8
  %5 = alloca ptr, align 8
  %6 = alloca ptr, align 8
  %7 = alloca ptr, align 8
  %8 = alloca ptr, align 8
  store ptr %0, ptr %4, align 8, !tbaa !4
  store ptr %1, ptr %5, align 8, !tbaa !8
  store ptr %2, ptr %6, align 8, !tbaa !8
  call void @llvm.lifetime.start.p0(i64 8, ptr %7) #11
  store ptr null, ptr %7, align 8, !tbaa !64
  call void @llvm.lifetime.start.p0(i64 8, ptr %8) #11
  store ptr null, ptr %8, align 8, !tbaa !4
  %9 = call i32 (ptr, ...) @printf(ptr noundef @.str.15)
  br label %10

10:                                               ; preds = %13, %3
  %11 = call ptr @av_bsf_iterate(ptr noundef %8)
  store ptr %11, ptr %7, align 8, !tbaa !64
  %12 = icmp ne ptr %11, null
  br i1 %12, label %13, label %18

13:                                               ; preds = %10
  %14 = load ptr, ptr %7, align 8, !tbaa !64
  %15 = getelementptr inbounds nuw %struct.AVBitStreamFilter, ptr %14, i32 0, i32 0
  %16 = load ptr, ptr %15, align 8, !tbaa !66
  %17 = call i32 (ptr, ...) @printf(ptr noundef @.str.16, ptr noundef %16)
  br label %10, !llvm.loop !97

18:                                               ; preds = %10
  %19 = call i32 (ptr, ...) @printf(ptr noundef @.str.14)
  call void @llvm.lifetime.end.p0(i64 8, ptr %8) #11
  call void @llvm.lifetime.end.p0(i64 8, ptr %7) #11
  ret i32 0
}