; Function Attrs: nounwind uwtable
define noundef i32 @show_bsfs(ptr noundef readnone captures(none) %0, ptr noundef readnone captures(none) %1, ptr noundef readnone captures(none) %2) local_unnamed_addr #2 {
  %4 = alloca ptr, align 8
  call void @llvm.lifetime.start.p0(i64 8, ptr nonnull %4) #17
  store ptr null, ptr %4, align 8, !tbaa !37
  %puts = tail call i32 @puts(ptr nonnull dereferenceable(1) @str.9)
  %5 = call ptr @av_bsf_iterate(ptr noundef nonnull %4) #17
  %.not2 = icmp eq ptr %5, null
  br i1 %.not2, label %._crit_edge, label %.lr.ph

.lr.ph:                                           ; preds = %3, %.lr.ph
  %6 = phi ptr [ %8, %.lr.ph ], [ %5, %3 ]
  %7 = load ptr, ptr %6, align 8, !tbaa !56
  %puts1 = call i32 @puts(ptr nonnull dereferenceable(1) %7)
  %8 = call ptr @av_bsf_iterate(ptr noundef nonnull %4) #17
  %.not = icmp eq ptr %8, null
  br i1 %.not, label %._crit_edge, label %.lr.ph, !llvm.loop !79

._crit_edge:                                      ; preds = %.lr.ph, %3
  %putchar = call i32 @putchar(i32 10)
  call void @llvm.lifetime.end.p0(i64 8, ptr nonnull %4) #17
  ret i32 0
}